target datalayout = "e-m:e-p270:32:32-p271:32:32-p272:64:64-i64:64-i128:128-f80:128-n8:16:32:64-S128"
target triple = "x86_64-pc-linux-gnu"

%struct.rand_loop_t = type { %struct.rb_random_struct, i32, i32, ptr }
%struct.rb_random_struct = type { i64 }

; Function Attrs: nounwind sspstrong uwtable
define internal i32 @loop_get_int32(ptr noundef %0) #0 {
  %2 = alloca i32, align 4
  %3 = alloca ptr, align 8
  %4 = alloca ptr, align 8
  %5 = alloca i32, align 4
  %6 = alloca i32, align 4
  store ptr %0, ptr %3, align 8, !tbaa !24
  call void @llvm.lifetime.start.p0(i64 8, ptr %4) #13
  %7 = load ptr, ptr %3, align 8, !tbaa !24
  store ptr %7, ptr %4, align 8, !tbaa !10
  %8 = load ptr, ptr %4, align 8, !tbaa !10
  %9 = getelementptr inbounds nuw %struct.rand_loop_t, ptr %8, i32 0, i32 2
  %10 = load i32, ptr %9, align 4, !tbaa !28
  %11 = load ptr, ptr %4, align 8, !tbaa !10
  %12 = getelementptr inbounds nuw %struct.rand_loop_t, ptr %11, i32 0, i32 1
  %13 = load i32, ptr %12, align 8, !tbaa !23
  %14 = icmp ult i32 %10, %13
  br i1 %14, label %15, label %38

15:                                               ; preds = %1
  call void @llvm.lifetime.start.p0(i64 4, ptr %5) #13
  %16 = load ptr, ptr %4, align 8, !tbaa !10
  %17 = getelementptr inbounds nuw %struct.rand_loop_t, ptr %16, i32 0, i32 3
  %18 = load ptr, ptr %17, align 8, !tbaa !18
  %19 = load ptr, ptr %4, align 8, !tbaa !10
  %20 = getelementptr inbounds nuw %struct.rand_loop_t, ptr %19, i32 0, i32 2
  %21 = load i32, ptr %20, align 4, !tbaa !28
  %22 = add i32 %21, 1
  store i32 %22, ptr %20, align 4, !tbaa !28
  %23 = zext i32 %21 to i64
  %24 = getelementptr inbounds nuw i32, ptr %18, i64 %23
  %25 = load i32, ptr %24, align 4, !tbaa !27
  store i32 %25, ptr %5, align 4, !tbaa !27
  %26 = load ptr, ptr %4, align 8, !tbaa !10
  %27 = getelementptr inbounds nuw %struct.rand_loop_t, ptr %26, i32 0, i32 2
  %28 = load i32, ptr %27, align 4, !tbaa !28
  %29 = load ptr, ptr %4, align 8, !tbaa !10
  %30 = getelementptr inbounds nuw %struct.rand_loop_t, ptr %29, i32 0, i32 1
  %31 = load i32, ptr %30, align 8, !tbaa !23
  %32 = icmp uge i32 %28, %31
  br i1 %32, label %33, label %36

33:                                               ; preds = %15
  %34 = load ptr, ptr %4, align 8, !tbaa !10
  %35 = getelementptr inbounds nuw %struct.rand_loop_t, ptr %34, i32 0, i32 2
  store i32 0, ptr %35, align 4, !tbaa !28
  br label %36

36:                                               ; preds = %33, %15
  %37 = load i32, ptr %5, align 4, !tbaa !27
  store i32 %37, ptr %2, align 4
  store i32 1, ptr %6, align 4
  call void @llvm.lifetime.end.p0(i64 4, ptr %5) #13
  br label %53

38:                                               ; preds = %1
  %39 = load ptr, ptr %4, align 8, !tbaa !10
  %40 = getelementptr inbounds nuw %struct.rand_loop_t, ptr %39, i32 0, i32 1
  %41 = load i32, ptr %40, align 8, !tbaa !23
  %42 = icmp ne i32 %41, 0
  br i1 %42, label %43, label %51

43:                                               ; preds = %38
  %44 = load ptr, ptr %4, align 8, !tbaa !10
  %45 = getelementptr inbounds nuw %struct.rand_loop_t, ptr %44, i32 0, i32 3
  %46 = load ptr, ptr %45, align 8, !tbaa !18
  %47 = load ptr, ptr %4, align 8, !tbaa !10
  %48 = getelementptr inbounds nuw %struct.rand_loop_t, ptr %47, i32 0, i32 2
  store i32 0, ptr %48, align 4, !tbaa !28
  %49 = getelementptr inbounds nuw i32, ptr %46, i64 0
  %50 = load i32, ptr %49, align 4, !tbaa !27
  store i32 %50, ptr %2, align 4
  store i32 1, ptr %6, align 4
  br label %53

51:                                               ; preds = %38
  br label %52

52:                                               ; preds = %51
  store i32 0, ptr %2, align 4
  store i32 1, ptr %6, align 4
  br label %53

53:                                               ; preds = %52, %43, %36
  call void @llvm.lifetime.end.p0(i64 8, ptr %4) #13
  %54 = load i32, ptr %2, align 4
  ret i32 %54
}

; Function Attrs: nounwind sspstrong uwtable
define internal void @loop_get_bytes(ptr noundef %0, ptr noundef %1, i64 noundef %2) #0 {
  %4 = alloca ptr, align 8
  %5 = alloca ptr, align 8
  %6 = alloca i64, align 8
  %7 = alloca ptr, align 8
  %8 = alloca i32, align 4
  store ptr %0, ptr %4, align 8, !tbaa !24
  store ptr %1, ptr %5, align 8, !tbaa !10
  store i64 %2, ptr %6, align 8, !tbaa !6
  call void @llvm.lifetime.start.p0(i64 8, ptr %7) #13
  %9 = load ptr, ptr %5, align 8, !tbaa !10
  store ptr %9, ptr %7, align 8, !tbaa !29
  br label %10

10:                                               ; preds = %46, %3
  %11 = load i64, ptr %6, align 8, !tbaa !6
  %12 = icmp ugt i64 %11, 0
  br i1 %12, label %13, label %47

13:                                               ; preds = %10
  call void @llvm.lifetime.start.p0(i64 4, ptr %8) #13
  %14 = load ptr, ptr %4, align 8, !tbaa !24
  %15 = call i32 @loop_get_int32(ptr noundef %14)
  store i32 %15, ptr %8, align 4, !tbaa !27
  %16 = load i64, ptr %6, align 8, !tbaa !6
  %17 = urem i64 %16, 4
  switch i64 %17, label %46 [
    i64 0, label %18
    i64 3, label %25
    i64 2, label %32
    i64 1, label %39
  ]

18:                                               ; preds = %13
  %19 = load i32, ptr %8, align 4, !tbaa !27
  %20 = trunc i32 %19 to i8
  %21 = load ptr, ptr %7, align 8, !tbaa !29
  %22 = getelementptr inbounds nuw i8, ptr %21, i32 1
  store ptr %22, ptr %7, align 8, !tbaa !29
  store i8 %20, ptr %21, align 1, !tbaa !31
  %23 = load i64, ptr %6, align 8, !tbaa !6
  %24 = add i64 %23, -1
  store i64 %24, ptr %6, align 8, !tbaa !6
  br label %25

25:                                               ; preds = %13, %18
  %26 = load i32, ptr %8, align 4, !tbaa !27
  %27 = trunc i32 %26 to i8
  %28 = load ptr, ptr %7, align 8, !tbaa !29
  %29 = getelementptr inbounds nuw i8, ptr %28, i32 1
  store ptr %29, ptr %7, align 8, !tbaa !29
  store i8 %27, ptr %28, align 1, !tbaa !31
  %30 = load i64, ptr %6, align 8, !tbaa !6
  %31 = add i64 %30, -1
  store i64 %31, ptr %6, align 8, !tbaa !6
  br label %32

32:                                               ; preds = %13, %25
  %33 = load i32, ptr %8, align 4, !tbaa !27
  %34 = trunc i32 %33 to i8
  %35 = load ptr, ptr %7, align 8, !tbaa !29
  %36 = getelementptr inbounds nuw i8, ptr %35, i32 1
  store ptr %36, ptr %7, align 8, !tbaa !29
  store i8 %34, ptr %35, align 1, !tbaa !31
  %37 = load i64, ptr %6, align 8, !tbaa !6
  %38 = add i64 %37, -1
  store i64 %38, ptr %6, align 8, !tbaa !6
  br label %39

39:                                               ; preds = %13, %32
  %40 = load i32, ptr %8, align 4, !tbaa !27
  %41 = trunc i32 %40 to i8
  %42 = load ptr, ptr %7, align 8, !tbaa !29
  %43 = getelementptr inbounds nuw i8, ptr %42, i32 1
  store ptr %43, ptr %7, align 8, !tbaa !29
  store i8 %41, ptr %42, align 1, !tbaa !31
  %44 = load i64, ptr %6, align 8, !tbaa !6
  %45 = add i64 %44, -1
  store i64 %45, ptr %6, align 8, !tbaa !6
  br label %46

46:                                               ; preds = %39, %13
  call void @llvm.lifetime.end.p0(i64 4, ptr %8) #13
  br label %10, !llvm.loop !32

47:                                               ; preds = %10
  call void @llvm.lifetime.end.p0(i64 8, ptr %7) #13
  ret void
}