; Function Attrs: nofree norecurse nosync nounwind sspstrong memory(read, argmem: readwrite, inaccessiblemem: none) uwtable
define internal void @loop_get_bytes(ptr noundef captures(none) %0, ptr noundef writeonly captures(none) %1, i64 noundef %2) #4 {
  %.not19 = icmp eq i64 %2, 0
  br i1 %.not19, label %._crit_edge, label %.lr.ph

.lr.ph:                                           ; preds = %3
  %4 = getelementptr inbounds nuw i8, ptr %0, i64 12
  %5 = getelementptr inbounds nuw i8, ptr %0, i64 8
  %6 = getelementptr inbounds nuw i8, ptr %0, i64 16
  br label %7

7:                                                ; preds = %.lr.ph, %loop_get_int32.exit._crit_edge
  %.021 = phi i64 [ %2, %.lr.ph ], [ %31, %loop_get_int32.exit._crit_edge ]
  %.01520 = phi ptr [ %1, %.lr.ph ], [ %30, %loop_get_int32.exit._crit_edge ]
  %8 = load i32, ptr %4, align 4, !tbaa !21
  %9 = load i32, ptr %5, align 8, !tbaa !20
  %10 = icmp ult i32 %8, %9
  br i1 %10, label %11, label %17

11:                                               ; preds = %7
  %12 = load ptr, ptr %6, align 8, !tbaa !15
  %13 = add nuw i32 %8, 1
  store i32 %13, ptr %4, align 4, !tbaa !21
  %14 = zext i32 %8 to i64
  %15 = getelementptr inbounds nuw i32, ptr %12, i64 %14
  %16 = load i32, ptr %15, align 4, !tbaa !22
  %.not14.i = icmp ult i32 %13, %9
  %spec.store.select.i = select i1 %.not14.i, i32 %13, i32 0
  store i32 %spec.store.select.i, ptr %4, align 4
  br label %loop_get_int32.exit

17:                                               ; preds = %7
  %.not.i = icmp eq i32 %9, 0
  br i1 %.not.i, label %loop_get_int32.exit, label %18

18:                                               ; preds = %17
  %19 = load ptr, ptr %6, align 8, !tbaa !15
  store i32 0, ptr %4, align 4, !tbaa !21
  %20 = load i32, ptr %19, align 4, !tbaa !22
  br label %loop_get_int32.exit

loop_get_int32.exit:                              ; preds = %11, %17, %18
  %.0.i = phi i32 [ %16, %11 ], [ %20, %18 ], [ 0, %17 ]
  %21 = and i64 %.021, 3
  %22 = trunc i32 %.0.i to i8
  switch i64 %21, label %default.unreachable28 [
    i64 0, label %23
    i64 3, label %loop_get_int32.exit._crit_edge23
    i64 2, label %loop_get_int32.exit._crit_edge22
    i64 1, label %loop_get_int32.exit._crit_edge
  ]

23:                                               ; preds = %loop_get_int32.exit
  %24 = getelementptr inbounds nuw i8, ptr %.01520, i64 1
  store i8 %22, ptr %.01520, align 1, !tbaa !23
  %25 = add i64 %.021, -1
  br label %loop_get_int32.exit._crit_edge23

loop_get_int32.exit._crit_edge23:                 ; preds = %loop_get_int32.exit, %23
  %.116 = phi ptr [ %24, %23 ], [ %.01520, %loop_get_int32.exit ]
  %.1 = phi i64 [ %25, %23 ], [ %.021, %loop_get_int32.exit ]
  %26 = getelementptr inbounds nuw i8, ptr %.116, i64 1
  store i8 %22, ptr %.116, align 1, !tbaa !23
  %27 = add i64 %.1, -1
  br label %loop_get_int32.exit._crit_edge22

loop_get_int32.exit._crit_edge22:                 ; preds = %loop_get_int32.exit, %loop_get_int32.exit._crit_edge23
  %.217 = phi ptr [ %26, %loop_get_int32.exit._crit_edge23 ], [ %.01520, %loop_get_int32.exit ]
  %.2 = phi i64 [ %27, %loop_get_int32.exit._crit_edge23 ], [ %.021, %loop_get_int32.exit ]
  %28 = getelementptr inbounds nuw i8, ptr %.217, i64 1
  store i8 %22, ptr %.217, align 1, !tbaa !23
  %29 = add i64 %.2, -1
  br label %loop_get_int32.exit._crit_edge

loop_get_int32.exit._crit_edge:                   ; preds = %loop_get_int32.exit, %loop_get_int32.exit._crit_edge22
  %.318 = phi ptr [ %28, %loop_get_int32.exit._crit_edge22 ], [ %.01520, %loop_get_int32.exit ]
  %.3 = phi i64 [ %29, %loop_get_int32.exit._crit_edge22 ], [ %.021, %loop_get_int32.exit ]
  %30 = getelementptr inbounds nuw i8, ptr %.318, i64 1
  store i8 %22, ptr %.318, align 1, !tbaa !23
  %31 = add i64 %.3, -1
  %.not = icmp eq i64 %31, 0
  br i1 %.not, label %._crit_edge, label %7, !llvm.loop !24

default.unreachable28:                            ; preds = %loop_get_int32.exit
  unreachable

._crit_edge:                                      ; preds = %loop_get_int32.exit._crit_edge, %3
  ret void
}